; Function Attrs: nounwind uwtable
define noalias nonnull ptr @l_Array_forIn_x27Unsafe_loop___at_Lean_Server_FileWorker_handleDocumentHighlight___spec__3___lambda__1(ptr noundef %0, i64 noundef %1, ptr noundef %2, ptr readnone captures(none) %3, ptr noundef %4) local_unnamed_addr #0 {
  %6 = getelementptr inbounds nuw i8, ptr %0, i64 16
  %7 = load ptr, ptr %6, align 8, !tbaa !10
  %8 = ptrtoint ptr %7 to i64
  %9 = and i64 %8, 1
  %.not = icmp eq i64 %9, 0
  br i1 %.not, label %10, label %lean_inc.exit

10:                                               ; preds = %5
  %.val.i = load i32, ptr %7, align 4, !tbaa !4
  %11 = icmp sgt i32 %.val.i, 0
  br i1 %11, label %12, label %14, !prof !9

12:                                               ; preds = %10
  %13 = add nuw i32 %.val.i, 1
  store i32 %13, ptr %7, align 4, !tbaa !4
  br label %lean_inc.exit

14:                                               ; preds = %10
  %.not.i19 = icmp eq i32 %.val.i, 0
  br i1 %.not.i19, label %lean_inc.exit, label %15

15:                                               ; preds = %14
  tail call void @lean_inc_ref_cold(ptr noundef nonnull %7) #8
  br label %lean_inc.exit

lean_inc.exit:                                    ; preds = %15, %14, %12, %5
  %16 = ptrtoint ptr %0 to i64
  %17 = and i64 %16, 1
  %.not21 = icmp eq i64 %17, 0
  br i1 %.not21, label %18, label %lean_dec.exit16

18:                                               ; preds = %lean_inc.exit
  %19 = load i32, ptr %0, align 4, !tbaa !4
  %20 = icmp sgt i32 %19, 1
  br i1 %20, label %21, label %23, !prof !9

21:                                               ; preds = %18
  %22 = add nsw i32 %19, -1
  store i32 %22, ptr %0, align 4, !tbaa !4
  br label %lean_dec.exit16

23:                                               ; preds = %18
  %.not.i = icmp eq i32 %19, 0
  br i1 %.not.i, label %lean_dec.exit16, label %24

24:                                               ; preds = %23
  tail call void @lean_dec_ref_cold(ptr noundef nonnull %0) #8
  br label %lean_dec.exit16

lean_dec.exit16:                                  ; preds = %24, %23, %21, %lean_inc.exit
  %25 = getelementptr i8, ptr %7, i64 8
  %.val = load i64, ptr %25, align 8, !tbaa !12
  %26 = tail call ptr @l_Array_mapMUnsafe_map___at_Lean_Server_FileWorker_handleDocumentHighlight___spec__2(i64 noundef %.val, i64 noundef %1, ptr noundef %7)
  %27 = tail call ptr @l_Array_append___rarg(ptr noundef %2, ptr noundef %26) #8
  %28 = ptrtoint ptr %26 to i64
  %29 = and i64 %28, 1
  %.not22 = icmp eq i64 %29, 0
  br i1 %.not22, label %30, label %lean_dec.exit

30:                                               ; preds = %lean_dec.exit16
  %31 = load i32, ptr %26, align 4, !tbaa !4
  %32 = icmp sgt i32 %31, 1
  br i1 %32, label %33, label %35, !prof !9

33:                                               ; preds = %30
  %34 = add nsw i32 %31, -1
  store i32 %34, ptr %26, align 4, !tbaa !4
  br label %lean_dec.exit

35:                                               ; preds = %30
  %.not.i17 = icmp eq i32 %31, 0
  br i1 %.not.i17, label %lean_dec.exit, label %36

36:                                               ; preds = %35
  tail call void @lean_dec_ref_cold(ptr noundef nonnull %26) #8
  br label %lean_dec.exit

lean_dec.exit:                                    ; preds = %36, %35, %33, %lean_dec.exit16
  tail call void @lean_inc_heartbeat() #8
  %37 = tail call noalias ptr @mi_malloc_small(i64 noundef 16) #8
  %38 = icmp eq ptr %37, null
  br i1 %38, label %39, label %lean_alloc_ctor.exit

39:                                               ; preds = %lean_dec.exit
  tail call void @lean_internal_panic_out_of_memory() #9
  unreachable

lean_alloc_ctor.exit:                             ; preds = %lean_dec.exit
  %40 = getelementptr inbounds nuw i8, ptr %37, i64 4
  store i32 1, ptr %37, align 4, !tbaa !4
  store i32 16842768, ptr %40, align 4
  %41 = getelementptr inbounds nuw i8, ptr %37, i64 8
  store ptr %27, ptr %41, align 8, !tbaa !10
  tail call void @lean_inc_heartbeat() #8
  %42 = tail call noalias ptr @mi_malloc_small(i64 noundef 24) #8
  %43 = icmp eq ptr %42, null
  br i1 %43, label %44, label %lean_alloc_ctor.exit20

44:                                               ; preds = %lean_alloc_ctor.exit
  tail call void @lean_internal_panic_out_of_memory() #9
  unreachable

lean_alloc_ctor.exit20:                           ; preds = %lean_alloc_ctor.exit
  %45 = getelementptr inbounds nuw i8, ptr %42, i64 4
  store i32 1, ptr %42, align 4, !tbaa !4
  store i32 131096, ptr %45, align 4
  %46 = getelementptr inbounds nuw i8, ptr %42, i64 8
  store ptr %37, ptr %46, align 8, !tbaa !10
  %47 = getelementptr inbounds nuw i8, ptr %42, i64 16
  store ptr %4, ptr %47, align 8, !tbaa !10
  ret ptr %42
}